; ModuleID = 'source-C-CXX/51/1449.c'
source_filename = "source-C-CXX/51/1449.c"
target datalayout = "e-m:e-p270:32:32-p271:32:32-p272:64:64-i64:64-f80:128-n8:16:32:64-S128"
target triple = "x86_64-pc-linux-gnu"

@.str = private unnamed_addr constant [6 x i8] c"%d %d\00", align 1
@.str.1 = private unnamed_addr constant [3 x i8] c"%d\00", align 1
@.str.2 = private unnamed_addr constant [4 x i8] c"%d \00", align 1

; Function Attrs: nofree nounwind sspstrong uwtable
define dso_local void @main() local_unnamed_addr #0 {
  %1 = alloca i32, align 4
  %2 = alloca i32, align 4
  %3 = alloca [10000 x i32], align 16
  %4 = bitcast i32* %1 to i8*
  call void @llvm.lifetime.start.p0i8(i64 4, i8* nonnull %4) #3
  %5 = bitcast i32* %2 to i8*
  call void @llvm.lifetime.start.p0i8(i64 4, i8* nonnull %5) #3
  %6 = bitcast [10000 x i32]* %3 to i8*
  call void @llvm.lifetime.start.p0i8(i64 40000, i8* nonnull %6) #3
  %7 = call i32 (i8*, ...) @__isoc99_scanf(i8* getelementptr inbounds ([6 x i8], [6 x i8]* @.str, i64 0, i64 0), i32* nonnull %1, i32* nonnull %2)
  %8 = load i32, i32* %1, align 4, !tbaa !5
  %9 = icmp sgt i32 %8, 0
  br i1 %9, label %12, label %54

10:                                               ; preds = %38
  %11 = icmp sgt i32 %39, 1
  br i1 %11, label %42, label %54

12:                                               ; preds = %0, %38
  %13 = phi i32 [ %39, %38 ], [ %8, %0 ]
  %14 = phi i32 [ %40, %38 ], [ 0, %0 ]
  %15 = load i32, i32* %2, align 4, !tbaa !5
  %16 = sub nsw i32 %13, %15
  %17 = icmp slt i32 %14, %16
  br i1 %17, label %18, label %26

18:                                               ; preds = %12
  %19 = add nsw i32 %15, %14
  %20 = sext i32 %19 to i64
  %21 = getelementptr inbounds [10000 x i32], [10000 x i32]* %3, i64 0, i64 %20
  %22 = call i32 (i8*, ...) @__isoc99_scanf(i8* getelementptr inbounds ([3 x i8], [3 x i8]* @.str.1, i64 0, i64 0), i32* nonnull %21)
  %23 = load i32, i32* %1, align 4, !tbaa !5
  %24 = load i32, i32* %2, align 4, !tbaa !5
  %25 = sub nsw i32 %23, %24
  br label %26

26:                                               ; preds = %18, %12
  %27 = phi i32 [ %25, %18 ], [ %16, %12 ]
  %28 = phi i32 [ %23, %18 ], [ %13, %12 ]
  %29 = phi i32 [ %24, %18 ], [ %15, %12 ]
  %30 = icmp slt i32 %14, %27
  br i1 %30, label %38, label %31

31:                                               ; preds = %26
  %32 = sub i32 %14, %28
  %33 = add nsw i32 %32, %29
  %34 = sext i32 %33 to i64
  %35 = getelementptr inbounds [10000 x i32], [10000 x i32]* %3, i64 0, i64 %34
  %36 = call i32 (i8*, ...) @__isoc99_scanf(i8* getelementptr inbounds ([3 x i8], [3 x i8]* @.str.1, i64 0, i64 0), i32* nonnull %35)
  %37 = load i32, i32* %1, align 4, !tbaa !5
  br label %38

38:                                               ; preds = %26, %31
  %39 = phi i32 [ %28, %26 ], [ %37, %31 ]
  %40 = add nuw nsw i32 %14, 1
  %41 = icmp slt i32 %40, %39
  br i1 %41, label %12, label %10, !llvm.loop !9

42:                                               ; preds = %10, %42
  %43 = phi i64 [ %47, %42 ], [ 0, %10 ]
  %44 = getelementptr inbounds [10000 x i32], [10000 x i32]* %3, i64 0, i64 %43
  %45 = load i32, i32* %44, align 4, !tbaa !5
  %46 = call i32 (i8*, ...) @printf(i8* nonnull dereferenceable(1) getelementptr inbounds ([4 x i8], [4 x i8]* @.str.2, i64 0, i64 0), i32 %45)
  %47 = add nuw nsw i64 %43, 1
  %48 = load i32, i32* %1, align 4, !tbaa !5
  %49 = add nsw i32 %48, -1
  %50 = sext i32 %49 to i64
  %51 = icmp slt i64 %47, %50
  br i1 %51, label %42, label %52, !llvm.loop !11

52:                                               ; preds = %42
  %53 = and i64 %47, 4294967295
  br label %54

54:                                               ; preds = %0, %52, %10
  %55 = phi i64 [ 0, %10 ], [ %53, %52 ], [ 0, %0 ]
  %56 = getelementptr inbounds [10000 x i32], [10000 x i32]* %3, i64 0, i64 %55
  %57 = load i32, i32* %56, align 4, !tbaa !5
  %58 = call i32 (i8*, ...) @printf(i8* nonnull dereferenceable(1) getelementptr inbounds ([3 x i8], [3 x i8]* @.str.1, i64 0, i64 0), i32 %57)
  call void @llvm.lifetime.end.p0i8(i64 40000, i8* nonnull %6) #3
  call void @llvm.lifetime.end.p0i8(i64 4, i8* nonnull %5) #3
  call void @llvm.lifetime.end.p0i8(i64 4, i8* nonnull %4) #3
  ret void
}

; Function Attrs: argmemonly mustprogress nofree nosync nounwind willreturn
declare void @llvm.lifetime.start.p0i8(i64 immarg, i8* nocapture) #1

; Function Attrs: nofree nounwind
declare noundef i32 @__isoc99_scanf(i8* nocapture noundef readonly, ...) local_unnamed_addr #2

; Function Attrs: nofree nounwind
declare noundef i32 @printf(i8* nocapture noundef readonly, ...) local_unnamed_addr #2

; Function Attrs: argmemonly mustprogress nofree nosync nounwind willreturn
declare void @llvm.lifetime.end.p0i8(i64 immarg, i8* nocapture) #1


!llvm.module.flags = !{!0, !1, !2, !3}
!llvm.ident = !{!4}

!0 = !{i32 1, !"wchar_size", i32 4}
!1 = !{i32 7, !"PIC Level", i32 2}
!2 = !{i32 7, !"PIE Level", i32 2}
!3 = !{i32 7, !"uwtable", i32 1}
!4 = !{!"clang version 13.0.0"}
!5 = !{!6, !6, i64 0}
!6 = !{!"int", !7, i64 0}
!7 = !{!"omnipotent char", !8, i64 0}
!8 = !{!"Simple C/C++ TBAA"}
!9 = distinct !{!9, !10}
!10 = !{!"llvm.loop.mustprogress"}
!11 = distinct !{!11, !10}
